; Function Attrs: mustprogress uwtable
define noundef ptr @_ZN6icu_776number4impl19NumberFormatterImpl18resolvePluralRulesEPKNS_11PluralRulesERKNS_6LocaleER10UErrorCode(ptr noundef nonnull align 8 captures(none) dereferenceable(600) %0, ptr noundef readnone %1, ptr noundef nonnull align 8 dereferenceable(217) %2, ptr noundef nonnull align 4 dereferenceable(4) %3) local_unnamed_addr #1 align 2 {
  %.not = icmp eq ptr %1, null
  br i1 %.not, label %5, label %16

5:                                                ; preds = %4
  %6 = getelementptr inbounds nuw i8, ptr %0, i64 528
  %7 = load ptr, ptr %6, align 8, !tbaa !102
  %.not8 = icmp eq ptr %7, null
  br i1 %.not8, label %8, label %16

8:                                                ; preds = %5
  %9 = tail call noundef ptr @_ZN6icu_7711PluralRules9forLocaleERKNS_6LocaleER10UErrorCode(ptr noundef nonnull align 8 dereferenceable(217) %2, ptr noundef nonnull align 4 dereferenceable(4) %3)
  %10 = load ptr, ptr %6, align 8, !tbaa !102
  %11 = icmp eq ptr %10, null
  br i1 %11, label %_ZN6icu_7712LocalPointerIKNS_11PluralRulesEE12adoptInsteadEPS2_.exit, label %12

12:                                               ; preds = %8
  %13 = load ptr, ptr %10, align 8, !tbaa !93
  %14 = getelementptr inbounds nuw i8, ptr %13, i64 8
  %15 = load ptr, ptr %14, align 8
  tail call void %15(ptr noundef nonnull align 8 dereferenceable(28) %10) #16
  br label %_ZN6icu_7712LocalPointerIKNS_11PluralRulesEE12adoptInsteadEPS2_.exit

_ZN6icu_7712LocalPointerIKNS_11PluralRulesEE12adoptInsteadEPS2_.exit: ; preds = %8, %12
  store ptr %9, ptr %6, align 8, !tbaa !102
  br label %16

16:                                               ; preds = %5, %_ZN6icu_7712LocalPointerIKNS_11PluralRulesEE12adoptInsteadEPS2_.exit, %4
  %.0 = phi ptr [ %1, %4 ], [ %9, %_ZN6icu_7712LocalPointerIKNS_11PluralRulesEE12adoptInsteadEPS2_.exit ], [ %7, %5 ]
  ret ptr %.0
}